; Function Attrs: mustprogress nounwind uwtable
define dso_local void @_ZNK4node4quic8Endpoint3UDP13local_addressEv(ptr noalias sret(%"class.node::SocketAddress") align 8 %agg.result, ptr nocapture noundef nonnull readonly align 8 dereferenceable(24) %this) local_unnamed_addr #3 align 2 {
entry:
  %impl_.i = getelementptr inbounds i8, ptr %this, i64 8
  %0 = load ptr, ptr %impl_.i, align 8
  %cmp.i.not.i = icmp eq ptr %0, null
  br i1 %cmp.i.not.i, label %do.body5, label %land.rhs

land.rhs:                                         ; preds = %entry
  %is_bound_.i = getelementptr inbounds i8, ptr %this, i64 16
  %1 = load i8, ptr %is_bound_.i, align 8
  %2 = and i8 %1, 1
  %tobool.i.not = icmp eq i8 %2, 0
  br i1 %tobool.i.not, label %do.body5, label %do.end6

do.body5:                                         ; preds = %entry, %land.rhs
  tail call void @_ZN4node6AssertERKNS_13AssertionInfoE(ptr noundef nonnull align 8 dereferenceable(24) @_ZZNK4node4quic8Endpoint3UDP13local_addressEvE4args) #21
  tail call void @abort() #22
  unreachable

do.end6:                                          ; preds = %land.rhs
  %handle_ = getelementptr inbounds i8, ptr %0, i64 88
  tail call void @_ZN4node13SocketAddress12FromSockNameERK8uv_udp_s(ptr sret(%"class.node::SocketAddress") align 8 %agg.result, ptr noundef nonnull align 8 dereferenceable(216) %handle_) #21
  ret void
}